target datalayout = "e-m:e-p270:32:32-p271:32:32-p272:64:64-i64:64-i128:128-f80:128-n8:16:32:64-S128"
target triple = "x86_64-pc-linux-gnu"

%struct.SDL_Keyboard = type { ptr, i16, [512 x i8], [512 x i8], ptr, i32, i8, i64, i32 }

@SDL_keyboard = internal global %struct.SDL_Keyboard zeroinitializer, align 8

; Function Attrs: nounwind uwtable
define internal void @SetKeymapEntry(i32 noundef %0, i16 noundef zeroext %1, i32 noundef %2) #0 {
  %4 = alloca i32, align 4
  %5 = alloca i16, align 2
  %6 = alloca i32, align 4
  %7 = alloca ptr, align 8
  store i32 %0, ptr %4, align 4
  store i16 %1, ptr %5, align 2
  store i32 %2, ptr %6, align 4
  call void @llvm.lifetime.start.p0(i64 8, ptr %7) #6
  store ptr @SDL_keyboard, ptr %7, align 8
  %8 = load ptr, ptr %7, align 8
  %9 = getelementptr inbounds nuw %struct.SDL_Keyboard, ptr %8, i32 0, i32 4
  %10 = load ptr, ptr %9, align 8
  %11 = icmp ne ptr %10, null
  br i1 %11, label %16, label %12

12:                                               ; preds = %3
  %13 = call ptr @SDL_CreateKeymap(i1 noundef zeroext true)
  %14 = load ptr, ptr %7, align 8
  %15 = getelementptr inbounds nuw %struct.SDL_Keyboard, ptr %14, i32 0, i32 4
  store ptr %13, ptr %15, align 8
  br label %16

16:                                               ; preds = %12, %3
  %17 = load ptr, ptr %7, align 8
  %18 = getelementptr inbounds nuw %struct.SDL_Keyboard, ptr %17, i32 0, i32 4
  %19 = load ptr, ptr %18, align 8
  %20 = load i32, ptr %4, align 4
  %21 = load i16, ptr %5, align 2
  %22 = load i32, ptr %6, align 4
  call void @SDL_SetKeymapEntry(ptr noundef %19, i32 noundef %20, i16 noundef zeroext %21, i32 noundef %22)
  call void @llvm.lifetime.end.p0(i64 8, ptr %7) #6
  ret void
}

; Function Attrs: nounwind uwtable
define internal i32 @GetNextReservedScancode() #0 {
  %1 = alloca ptr, align 8
  %2 = alloca i32, align 4
  call void @llvm.lifetime.start.p0(i64 8, ptr %1) #6
  store ptr @SDL_keyboard, ptr %1, align 8
  call void @llvm.lifetime.start.p0(i64 4, ptr %2) #6
  %3 = load ptr, ptr %1, align 8
  %4 = getelementptr inbounds nuw %struct.SDL_Keyboard, ptr %3, i32 0, i32 8
  %5 = load i32, ptr %4, align 8
  %6 = icmp ne i32 %5, 0
  br i1 %6, label %7, label %16

7:                                                ; preds = %0
  %8 = load ptr, ptr %1, align 8
  %9 = getelementptr inbounds nuw %struct.SDL_Keyboard, ptr %8, i32 0, i32 8
  %10 = load i32, ptr %9, align 8
  %11 = icmp slt i32 %10, 500
  br i1 %11, label %12, label %16

12:                                               ; preds = %7
  %13 = load ptr, ptr %1, align 8
  %14 = getelementptr inbounds nuw %struct.SDL_Keyboard, ptr %13, i32 0, i32 8
  %15 = load i32, ptr %14, align 8
  store i32 %15, ptr %2, align 4
  br label %17

16:                                               ; preds = %7, %0
  store i32 400, ptr %2, align 4
  br label %17

17:                                               ; preds = %16, %12
  %18 = load i32, ptr %2, align 4
  %19 = add nsw i32 %18, 1
  %20 = load ptr, ptr %1, align 8
  %21 = getelementptr inbounds nuw %struct.SDL_Keyboard, ptr %20, i32 0, i32 8
  store i32 %19, ptr %21, align 8
  %22 = load i32, ptr %2, align 4
  call void @llvm.lifetime.end.p0(i64 4, ptr %2) #6
  call void @llvm.lifetime.end.p0(i64 8, ptr %1) #6
  ret i32 %22
}

; Function Attrs: nounwind uwtable
define hidden void @SDL_SendKeyboardUnicodeKey(i64 noundef %0, i32 noundef %1) #0 {
  %3 = alloca i64, align 8
  %4 = alloca i32, align 4
  %5 = alloca ptr, align 8
  %6 = alloca i16, align 2
  %7 = alloca i32, align 4
  store i64 %0, ptr %3, align 8
  store i32 %1, ptr %4, align 4
  call void @llvm.lifetime.start.p0(i64 8, ptr %5) #6
  store ptr @SDL_keyboard, ptr %5, align 8
  call void @llvm.lifetime.start.p0(i64 2, ptr %6) #6
  store i16 0, ptr %6, align 2
  call void @llvm.lifetime.start.p0(i64 4, ptr %7) #6
  %8 = load i32, ptr %4, align 4
  %9 = icmp eq i32 %8, 10
  br i1 %9, label %10, label %11

10:                                               ; preds = %2
  store i32 13, ptr %4, align 4
  br label %11

11:                                               ; preds = %10, %2
  %12 = load ptr, ptr %5, align 8
  %13 = getelementptr inbounds nuw %struct.SDL_Keyboard, ptr %12, i32 0, i32 4
  %14 = load ptr, ptr %13, align 8
  %15 = load i32, ptr %4, align 4
  %16 = call i32 @SDL_GetKeymapScancode(ptr noundef %14, i32 noundef %15, ptr noundef %6)
  store i32 %16, ptr %7, align 4
  %17 = load i32, ptr %7, align 4
  %18 = icmp eq i32 %17, 0
  br i1 %18, label %19, label %27

19:                                               ; preds = %11
  %20 = load i32, ptr %4, align 4
  %21 = icmp ult i32 %20, 1073741824
  br i1 %21, label %22, label %27

22:                                               ; preds = %19
  %23 = call i32 @GetNextReservedScancode()
  store i32 %23, ptr %7, align 4
  %24 = load i32, ptr %7, align 4
  %25 = load i16, ptr %6, align 2
  %26 = load i32, ptr %4, align 4
  call void @SetKeymapEntry(i32 noundef %24, i16 noundef zeroext %25, i32 noundef %26)
  br label %27

27:                                               ; preds = %22, %19, %11
  %28 = load i16, ptr %6, align 2
  %29 = zext i16 %28 to i32
  %30 = and i32 %29, 3
  %31 = icmp ne i32 %30, 0
  br i1 %31, label %32, label %35

32:                                               ; preds = %27
  %33 = load i64, ptr %3, align 8
  %34 = call zeroext i1 @SDL_SendKeyboardKeyInternal(i64 noundef %33, i32 noundef 2, i32 noundef 0, i32 noundef 0, i32 noundef 225, i1 noundef zeroext true)
  br label %35

35:                                               ; preds = %32, %27
  %36 = load i64, ptr %3, align 8
  %37 = load i32, ptr %7, align 4
  %38 = call zeroext i1 @SDL_SendKeyboardKeyInternal(i64 noundef %36, i32 noundef 2, i32 noundef 0, i32 noundef 0, i32 noundef %37, i1 noundef zeroext true)
  %39 = load i64, ptr %3, align 8
  %40 = load i32, ptr %7, align 4
  %41 = call zeroext i1 @SDL_SendKeyboardKeyInternal(i64 noundef %39, i32 noundef 2, i32 noundef 0, i32 noundef 0, i32 noundef %40, i1 noundef zeroext false)
  %42 = load i16, ptr %6, align 2
  %43 = zext i16 %42 to i32
  %44 = and i32 %43, 3
  %45 = icmp ne i32 %44, 0
  br i1 %45, label %46, label %49

46:                                               ; preds = %35
  %47 = load i64, ptr %3, align 8
  %48 = call zeroext i1 @SDL_SendKeyboardKeyInternal(i64 noundef %47, i32 noundef 2, i32 noundef 0, i32 noundef 0, i32 noundef 225, i1 noundef zeroext false)
  br label %49

49:                                               ; preds = %46, %35
  call void @llvm.lifetime.end.p0(i64 4, ptr %7) #6
  call void @llvm.lifetime.end.p0(i64 2, ptr %6) #6
  call void @llvm.lifetime.end.p0(i64 8, ptr %5) #6
  ret void
}