; Function Attrs: nounwind uwtable
define hidden void @SDL_SendKeyboardUnicodeKey(i64 noundef %0, i32 noundef %1) local_unnamed_addr #0 {
  %3 = alloca i16, align 2
  call void @llvm.lifetime.start.p0(i64 2, ptr nonnull %3) #13
  store i16 0, ptr %3, align 2
  %4 = icmp eq i32 %1, 10
  %spec.store.select = select i1 %4, i32 13, i32 %1
  %5 = load ptr, ptr getelementptr inbounds nuw (i8, ptr @SDL_keyboard, i64 1040), align 8
  %6 = call i32 @SDL_GetKeymapScancode(ptr noundef %5, i32 noundef %spec.store.select, ptr noundef nonnull %3) #13
  %7 = icmp eq i32 %6, 0
  %8 = icmp ult i32 %spec.store.select, 1073741824
  %or.cond = and i1 %8, %7
  br i1 %or.cond, label %9, label %18

9:                                                ; preds = %2
  %10 = load i32, ptr getelementptr inbounds nuw (i8, ptr @SDL_keyboard, i64 1064), align 8
  %.not.i = icmp ne i32 %10, 0
  %11 = icmp slt i32 %10, 500
  %or.cond.i = and i1 %.not.i, %11
  %.0.i = select i1 %or.cond.i, i32 %10, i32 400
  %12 = add nsw i32 %.0.i, 1
  store i32 %12, ptr getelementptr inbounds nuw (i8, ptr @SDL_keyboard, i64 1064), align 8
  %13 = load i16, ptr %3, align 2
  %14 = load ptr, ptr getelementptr inbounds nuw (i8, ptr @SDL_keyboard, i64 1040), align 8
  %.not.i14 = icmp eq ptr %14, null
  br i1 %.not.i14, label %15, label %SetKeymapEntry.exit

15:                                               ; preds = %9
  %16 = call ptr @SDL_CreateKeymap(i1 noundef zeroext true) #13
  store ptr %16, ptr getelementptr inbounds nuw (i8, ptr @SDL_keyboard, i64 1040), align 8
  br label %SetKeymapEntry.exit

SetKeymapEntry.exit:                              ; preds = %9, %15
  %17 = phi ptr [ %16, %15 ], [ %14, %9 ]
  call void @SDL_SetKeymapEntry(ptr noundef %17, i32 noundef %.0.i, i16 noundef zeroext %13, i32 noundef %spec.store.select) #13
  br label %18

18:                                               ; preds = %SetKeymapEntry.exit, %2
  %.0 = phi i32 [ %.0.i, %SetKeymapEntry.exit ], [ %6, %2 ]
  %19 = load i16, ptr %3, align 2
  %20 = and i16 %19, 3
  %.not = icmp eq i16 %20, 0
  br i1 %.not, label %23, label %21

21:                                               ; preds = %18
  %22 = call fastcc zeroext i1 @SDL_SendKeyboardKeyInternal(i64 noundef %0, i32 noundef 2, i32 noundef 0, i32 noundef 0, i32 noundef 225, i1 noundef zeroext true)
  br label %23

23:                                               ; preds = %21, %18
  %24 = call fastcc zeroext i1 @SDL_SendKeyboardKeyInternal(i64 noundef %0, i32 noundef 2, i32 noundef 0, i32 noundef 0, i32 noundef %.0, i1 noundef zeroext true)
  %25 = call fastcc zeroext i1 @SDL_SendKeyboardKeyInternal(i64 noundef %0, i32 noundef 2, i32 noundef 0, i32 noundef 0, i32 noundef %.0, i1 noundef zeroext false)
  %26 = load i16, ptr %3, align 2
  %27 = and i16 %26, 3
  %.not13 = icmp eq i16 %27, 0
  br i1 %.not13, label %30, label %28

28:                                               ; preds = %23
  %29 = call fastcc zeroext i1 @SDL_SendKeyboardKeyInternal(i64 noundef %0, i32 noundef 2, i32 noundef 0, i32 noundef 0, i32 noundef 225, i1 noundef zeroext false)
  br label %30

30:                                               ; preds = %28, %23
  call void @llvm.lifetime.end.p0(i64 2, ptr nonnull %3) #13
  ret void
}